target datalayout = "e-m:e-p270:32:32-p271:32:32-p272:64:64-i64:64-i128:128-f80:128-n8:16:32:64-S128"
target triple = "x86_64-unknown-linux-gnu"

%struct.TimersState = type { i64, i64, %struct.QemuSeqLock, %struct.QemuSpin, i16, i16, i64, i64, i64, i64, i64, ptr, ptr, ptr }
%struct.QemuSeqLock = type { i32 }
%struct.QemuSpin = type { i32 }

@timers_state = external global %struct.TimersState, align 8
@.str = private unnamed_addr constant [34 x i8] c"../qemu/accel/tcg/icount-common.c\00", align 1
@use_icount = dso_local global i32 0, align 4
@icount_sleep = internal global i8 1, align 1
@.str.3 = private unnamed_addr constant [6 x i8] c"shift\00", align 1
@.str.4 = private unnamed_addr constant [6 x i8] c"sleep\00", align 1
@.str.5 = private unnamed_addr constant [6 x i8] c"align\00", align 1
@__func__.icount_configure = private unnamed_addr constant [17 x i8] c"icount_configure\00", align 1
@.str.6 = private unnamed_addr constant [45 x i8] c"Please specify shift option when using align\00", align 1
@.str.7 = private unnamed_addr constant [40 x i8] c"align=on and sleep=off are incompatible\00", align 1
@.str.8 = private unnamed_addr constant [5 x i8] c"auto\00", align 1
@.str.9 = private unnamed_addr constant [28 x i8] c"icount: Invalid shift value\00", align 1
@icount_align_option = external global i32, align 4
@.str.10 = private unnamed_addr constant [41 x i8] c"shift=auto and align=on are incompatible\00", align 1
@.str.11 = private unnamed_addr constant [42 x i8] c"shift=auto and sleep=off are incompatible\00", align 1

; Function Attrs: nounwind sspstrong uwtable
define internal ptr @timer_new_full(ptr noundef %timer_list_group, i32 noundef %type, i32 noundef %scale, i32 noundef %attributes, ptr noundef %cb, ptr noundef %opaque) #0 {
entry:
  %timer_list_group.addr = alloca ptr, align 8
  %type.addr = alloca i32, align 4
  %scale.addr = alloca i32, align 4
  %attributes.addr = alloca i32, align 4
  %cb.addr = alloca ptr, align 8
  %opaque.addr = alloca ptr, align 8
  %ts = alloca ptr, align 8
  store ptr %timer_list_group, ptr %timer_list_group.addr, align 8
  store i32 %type, ptr %type.addr, align 4
  store i32 %scale, ptr %scale.addr, align 4
  store i32 %attributes, ptr %attributes.addr, align 4
  store ptr %cb, ptr %cb.addr, align 8
  store ptr %opaque, ptr %opaque.addr, align 8
  %call = call noalias ptr @g_malloc0_n(i64 noundef 1, i64 noundef 48) #11
  store ptr %call, ptr %ts, align 8
  %0 = load ptr, ptr %ts, align 8
  %1 = load ptr, ptr %timer_list_group.addr, align 8
  %2 = load i32, ptr %type.addr, align 4
  %3 = load i32, ptr %scale.addr, align 4
  %4 = load i32, ptr %attributes.addr, align 4
  %5 = load ptr, ptr %cb.addr, align 8
  %6 = load ptr, ptr %opaque.addr, align 8
  call void @timer_init_full(ptr noundef %0, ptr noundef %1, i32 noundef %2, i32 noundef %3, i32 noundef %4, ptr noundef %5, ptr noundef %6)
  %7 = load ptr, ptr %ts, align 8
  ret ptr %7
}

; Function Attrs: nounwind sspstrong uwtable
define internal ptr @timer_new(i32 noundef %type, i32 noundef %scale, ptr noundef %cb, ptr noundef %opaque) #0 {
entry:
  %type.addr = alloca i32, align 4
  %scale.addr = alloca i32, align 4
  %cb.addr = alloca ptr, align 8
  %opaque.addr = alloca ptr, align 8
  store i32 %type, ptr %type.addr, align 4
  store i32 %scale, ptr %scale.addr, align 4
  store ptr %cb, ptr %cb.addr, align 8
  store ptr %opaque, ptr %opaque.addr, align 8
  %0 = load i32, ptr %type.addr, align 4
  %1 = load i32, ptr %scale.addr, align 4
  %2 = load ptr, ptr %cb.addr, align 8
  %3 = load ptr, ptr %opaque.addr, align 8
  %call = call ptr @timer_new_full(ptr noundef null, i32 noundef %0, i32 noundef %1, i32 noundef 0, ptr noundef %2, ptr noundef %3)
  ret ptr %call
}

; Function Attrs: nounwind sspstrong uwtable
define internal i64 @qemu_clock_get_ms(i32 noundef %type) #0 {
entry:
  %type.addr = alloca i32, align 4
  store i32 %type, ptr %type.addr, align 4
  %0 = load i32, ptr %type.addr, align 4
  %call = call i64 @qemu_clock_get_ns(i32 noundef %0)
  %div = sdiv i64 %call, 1000000
  ret i64 %div
}

; Function Attrs: nounwind sspstrong uwtable
define internal ptr @timer_new_ms(i32 noundef %type, ptr noundef %cb, ptr noundef %opaque) #0 {
entry:
  %type.addr = alloca i32, align 4
  %cb.addr = alloca ptr, align 8
  %opaque.addr = alloca ptr, align 8
  store i32 %type, ptr %type.addr, align 4
  store ptr %cb, ptr %cb.addr, align 8
  store ptr %opaque, ptr %opaque.addr, align 8
  %0 = load i32, ptr %type.addr, align 4
  %1 = load ptr, ptr %cb.addr, align 8
  %2 = load ptr, ptr %opaque.addr, align 8
  %call = call ptr @timer_new(i32 noundef %0, i32 noundef 1000000, ptr noundef %1, ptr noundef %2)
  ret ptr %call
}

; Function Attrs: nounwind sspstrong uwtable
define internal void @icount_enable_adaptive() #0 {
entry:
  store i32 2, ptr @use_icount, align 4
  ret void
}

; Function Attrs: nounwind sspstrong uwtable
define internal void @icount_enable_precise() #0 {
entry:
  store i32 1, ptr @use_icount, align 4
  ret void
}

; Function Attrs: nounwind sspstrong uwtable
define internal ptr @timer_new_ns(i32 noundef %type, ptr noundef %cb, ptr noundef %opaque) #0 {
entry:
  %type.addr = alloca i32, align 4
  %cb.addr = alloca ptr, align 8
  %opaque.addr = alloca ptr, align 8
  store i32 %type, ptr %type.addr, align 4
  store ptr %cb, ptr %cb.addr, align 8
  store ptr %opaque, ptr %opaque.addr, align 8
  %0 = load i32, ptr %type.addr, align 4
  %1 = load ptr, ptr %cb.addr, align 8
  %2 = load ptr, ptr %opaque.addr, align 8
  %call = call ptr @timer_new(i32 noundef %0, i32 noundef 1, ptr noundef %1, ptr noundef %2)
  ret ptr %call
}

; Function Attrs: nounwind sspstrong uwtable
define dso_local void @icount_configure(ptr noundef %opts, ptr noundef %errp) #0 {
entry:
  %opts.addr = alloca ptr, align 8
  %errp.addr = alloca ptr, align 8
  %option = alloca ptr, align 8
  %sleep = alloca i8, align 1
  %align = alloca i8, align 1
  %time_shift = alloca i64, align 8
  store ptr %opts, ptr %opts.addr, align 8
  store ptr %errp, ptr %errp.addr, align 8
  %0 = load ptr, ptr %opts.addr, align 8
  %call = call ptr @qemu_opt_get(ptr noundef %0, ptr noundef @.str.3)
  store ptr %call, ptr %option, align 8
  %1 = load ptr, ptr %opts.addr, align 8
  %call1 = call zeroext i1 @qemu_opt_get_bool(ptr noundef %1, ptr noundef @.str.4, i1 noundef zeroext true)
  %frombool = zext i1 %call1 to i8
  store i8 %frombool, ptr %sleep, align 1
  %2 = load ptr, ptr %opts.addr, align 8
  %call2 = call zeroext i1 @qemu_opt_get_bool(ptr noundef %2, ptr noundef @.str.5, i1 noundef zeroext false)
  %frombool3 = zext i1 %call2 to i8
  store i8 %frombool3, ptr %align, align 1
  store i64 -1, ptr %time_shift, align 8
  %3 = load ptr, ptr %option, align 8
  %tobool = icmp ne ptr %3, null
  br i1 %tobool, label %if.end6, label %if.then

if.then:                                          ; preds = %entry
  %4 = load ptr, ptr %opts.addr, align 8
  %call4 = call ptr @qemu_opt_get(ptr noundef %4, ptr noundef @.str.5)
  %cmp = icmp ne ptr %call4, null
  br i1 %cmp, label %if.then5, label %if.end

if.then5:                                         ; preds = %if.then
  %5 = load ptr, ptr %errp.addr, align 8
  call void (ptr, ptr, i32, ptr, ptr, ...) @error_setg_internal(ptr noundef %5, ptr noundef @.str, i32 noundef 431, ptr noundef @__func__.icount_configure, ptr noundef @.str.6)
  br label %if.end

if.end:                                           ; preds = %if.then5, %if.then
  br label %return

if.end6:                                          ; preds = %entry
  %6 = load i8, ptr %align, align 1
  %tobool7 = trunc i8 %6 to i1
  br i1 %tobool7, label %land.lhs.true, label %if.end10

land.lhs.true:                                    ; preds = %if.end6
  %7 = load i8, ptr %sleep, align 1
  %tobool8 = trunc i8 %7 to i1
  br i1 %tobool8, label %if.end10, label %if.then9

if.then9:                                         ; preds = %land.lhs.true
  %8 = load ptr, ptr %errp.addr, align 8
  call void (ptr, ptr, i32, ptr, ptr, ...) @error_setg_internal(ptr noundef %8, ptr noundef @.str, i32 noundef 437, ptr noundef @__func__.icount_configure, ptr noundef @.str.7)
  br label %return

if.end10:                                         ; preds = %land.lhs.true, %if.end6
  %9 = load ptr, ptr %option, align 8
  %call11 = call i32 @strcmp(ptr noundef %9, ptr noundef @.str.8) #10
  %cmp12 = icmp ne i32 %call11, 0
  br i1 %cmp12, label %if.then13, label %if.else

if.then13:                                        ; preds = %if.end10
  %10 = load ptr, ptr %option, align 8
  %call14 = call i32 @qemu_strtol(ptr noundef %10, ptr noundef null, i32 noundef 0, ptr noundef %time_shift)
  %cmp15 = icmp slt i32 %call14, 0
  br i1 %cmp15, label %if.then19, label %lor.lhs.false

lor.lhs.false:                                    ; preds = %if.then13
  %11 = load i64, ptr %time_shift, align 8
  %cmp16 = icmp slt i64 %11, 0
  br i1 %cmp16, label %if.then19, label %lor.lhs.false17

lor.lhs.false17:                                  ; preds = %lor.lhs.false
  %12 = load i64, ptr %time_shift, align 8
  %cmp18 = icmp sgt i64 %12, 10
  br i1 %cmp18, label %if.then19, label %if.end20

if.then19:                                        ; preds = %lor.lhs.false17, %lor.lhs.false, %if.then13
  %13 = load ptr, ptr %errp.addr, align 8
  call void (ptr, ptr, i32, ptr, ptr, ...) @error_setg_internal(ptr noundef %13, ptr noundef @.str, i32 noundef 444, ptr noundef @__func__.icount_configure, ptr noundef @.str.9)
  br label %return

if.end20:                                         ; preds = %lor.lhs.false17
  br label %if.end28

if.else:                                          ; preds = %if.end10
  %14 = load i32, ptr @icount_align_option, align 4
  %tobool21 = icmp ne i32 %14, 0
  br i1 %tobool21, label %if.then22, label %if.else23

if.then22:                                        ; preds = %if.else
  %15 = load ptr, ptr %errp.addr, align 8
  call void (ptr, ptr, i32, ptr, ptr, ...) @error_setg_internal(ptr noundef %15, ptr noundef @.str, i32 noundef 448, ptr noundef @__func__.icount_configure, ptr noundef @.str.10)
  br label %return

if.else23:                                        ; preds = %if.else
  %16 = load i8, ptr @icount_sleep, align 1
  %tobool24 = trunc i8 %16 to i1
  br i1 %tobool24, label %if.end26, label %if.then25

if.then25:                                        ; preds = %if.else23
  %17 = load ptr, ptr %errp.addr, align 8
  call void (ptr, ptr, i32, ptr, ptr, ...) @error_setg_internal(ptr noundef %17, ptr noundef @.str, i32 noundef 451, ptr noundef @__func__.icount_configure, ptr noundef @.str.11)
  br label %return

if.end26:                                         ; preds = %if.else23
  br label %if.end27

if.end27:                                         ; preds = %if.end26
  br label %if.end28

if.end28:                                         ; preds = %if.end27, %if.end20
  %18 = load i8, ptr %sleep, align 1
  %tobool29 = trunc i8 %18 to i1
  %frombool30 = zext i1 %tobool29 to i8
  store i8 %frombool30, ptr @icount_sleep, align 1
  %19 = load i8, ptr @icount_sleep, align 1
  %tobool31 = trunc i8 %19 to i1
  br i1 %tobool31, label %if.then32, label %if.end34

if.then32:                                        ; preds = %if.end28
  %call33 = call ptr @timer_new_ns(i32 noundef 3, ptr noundef @icount_timer_cb, ptr noundef null)
  %20 = getelementptr inbounds %struct.TimersState, ptr @timers_state, i32 0, i32 13
  store ptr %call33, ptr %20, align 8
  br label %if.end34

if.end34:                                         ; preds = %if.then32, %if.end28
  %21 = load i8, ptr %align, align 1
  %tobool35 = trunc i8 %21 to i1
  %conv = zext i1 %tobool35 to i32
  store i32 %conv, ptr @icount_align_option, align 4
  %22 = load i64, ptr %time_shift, align 8
  %cmp36 = icmp sge i64 %22, 0
  br i1 %cmp36, label %if.then38, label %if.end40

if.then38:                                        ; preds = %if.end34
  %23 = load i64, ptr %time_shift, align 8
  %conv39 = trunc i64 %23 to i16
  %24 = getelementptr inbounds %struct.TimersState, ptr @timers_state, i32 0, i32 5
  store i16 %conv39, ptr %24, align 2
  call void @icount_enable_precise()
  br label %return

if.end40:                                         ; preds = %if.end34
  call void @icount_enable_adaptive()
  %25 = getelementptr inbounds %struct.TimersState, ptr @timers_state, i32 0, i32 5
  store i16 3, ptr %25, align 2
  %26 = getelementptr inbounds %struct.TimersState, ptr @timers_state, i32 0, i32 8
  store i64 -1, ptr %26, align 8
  %call41 = call ptr @timer_new_ms(i32 noundef 3, ptr noundef @icount_adjust_rt, ptr noundef null)
  %27 = getelementptr inbounds %struct.TimersState, ptr @timers_state, i32 0, i32 11
  store ptr %call41, ptr %27, align 8
  %28 = getelementptr inbounds %struct.TimersState, ptr @timers_state, i32 0, i32 11
  %29 = load ptr, ptr %28, align 8
  %call42 = call i64 @qemu_clock_get_ms(i32 noundef 3)
  %add = add i64 %call42, 1000
  call void @timer_mod(ptr noundef %29, i64 noundef %add)
  %call43 = call ptr @timer_new_ns(i32 noundef 1, ptr noundef @icount_adjust_vm, ptr noundef null)
  %30 = getelementptr inbounds %struct.TimersState, ptr @timers_state, i32 0, i32 12
  store ptr %call43, ptr %30, align 8
  %31 = getelementptr inbounds %struct.TimersState, ptr @timers_state, i32 0, i32 12
  %32 = load ptr, ptr %31, align 8
  %call44 = call i64 @qemu_clock_get_ns(i32 noundef 1)
  %add45 = add i64 %call44, 100000000
  call void @timer_mod(ptr noundef %32, i64 noundef %add45)
  br label %return

return:                                           ; preds = %if.end40, %if.then38, %if.then25, %if.then22, %if.then19, %if.then9, %if.end
  ret void
}