; Function Attrs: nounwind sspstrong uwtable
define dso_local void @icount_configure(ptr noundef %opts, ptr noundef %errp) local_unnamed_addr #0 {
entry:
  %time_shift = alloca i64, align 8
  %call = tail call ptr @qemu_opt_get(ptr noundef %opts, ptr noundef nonnull @.str.3) #9
  %call1 = tail call zeroext i1 @qemu_opt_get_bool(ptr noundef %opts, ptr noundef nonnull @.str.4, i1 noundef zeroext true) #9
  %frombool = zext i1 %call1 to i8
  %call2 = tail call zeroext i1 @qemu_opt_get_bool(ptr noundef %opts, ptr noundef nonnull @.str.5, i1 noundef zeroext false) #9
  store i64 -1, ptr %time_shift, align 8
  %tobool.not = icmp eq ptr %call, null
  br i1 %tobool.not, label %if.then, label %if.end6

if.then:                                          ; preds = %entry
  %call4 = tail call ptr @qemu_opt_get(ptr noundef %opts, ptr noundef nonnull @.str.5) #9
  %cmp.not = icmp eq ptr %call4, null
  br i1 %cmp.not, label %return, label %if.then5

if.then5:                                         ; preds = %if.then
  tail call void (ptr, ptr, i32, ptr, ptr, ...) @error_setg_internal(ptr noundef %errp, ptr noundef nonnull @.str, i32 noundef 431, ptr noundef nonnull @__func__.icount_configure, ptr noundef nonnull @.str.6) #9
  br label %return

if.end6:                                          ; preds = %entry
  %call2.not = xor i1 %call2, true
  %brmerge = select i1 %call2.not, i1 true, i1 %call1
  br i1 %brmerge, label %if.end10, label %if.then9

if.then9:                                         ; preds = %if.end6
  tail call void (ptr, ptr, i32, ptr, ptr, ...) @error_setg_internal(ptr noundef %errp, ptr noundef nonnull @.str, i32 noundef 437, ptr noundef nonnull @__func__.icount_configure, ptr noundef nonnull @.str.7) #9
  br label %return

if.end10:                                         ; preds = %if.end6
  %call11 = tail call i32 @strcmp(ptr noundef nonnull dereferenceable(1) %call, ptr noundef nonnull dereferenceable(5) @.str.8) #12
  %cmp12.not = icmp eq i32 %call11, 0
  br i1 %cmp12.not, label %if.else, label %if.then13

if.then13:                                        ; preds = %if.end10
  %call14 = call i32 @qemu_strtol(ptr noundef nonnull %call, ptr noundef null, i32 noundef 0, ptr noundef nonnull %time_shift) #9
  %cmp15 = icmp slt i32 %call14, 0
  %0 = load i64, ptr %time_shift, align 8
  %1 = icmp ugt i64 %0, 10
  %or.cond1 = select i1 %cmp15, i1 true, i1 %1
  br i1 %or.cond1, label %if.then19, label %if.end28

if.then19:                                        ; preds = %if.then13
  call void (ptr, ptr, i32, ptr, ptr, ...) @error_setg_internal(ptr noundef %errp, ptr noundef nonnull @.str, i32 noundef 444, ptr noundef nonnull @__func__.icount_configure, ptr noundef nonnull @.str.9) #9
  br label %return

if.else:                                          ; preds = %if.end10
  %2 = load i32, ptr @icount_align_option, align 4
  %tobool21.not = icmp eq i32 %2, 0
  br i1 %tobool21.not, label %if.else23, label %if.then22

if.then22:                                        ; preds = %if.else
  tail call void (ptr, ptr, i32, ptr, ptr, ...) @error_setg_internal(ptr noundef %errp, ptr noundef nonnull @.str, i32 noundef 448, ptr noundef nonnull @__func__.icount_configure, ptr noundef nonnull @.str.10) #9
  br label %return

if.else23:                                        ; preds = %if.else
  %3 = load i8, ptr @icount_sleep, align 1
  %tobool24 = trunc nuw i8 %3 to i1
  br i1 %tobool24, label %if.end28, label %if.then25

if.then25:                                        ; preds = %if.else23
  tail call void (ptr, ptr, i32, ptr, ptr, ...) @error_setg_internal(ptr noundef %errp, ptr noundef nonnull @.str, i32 noundef 451, ptr noundef nonnull @__func__.icount_configure, ptr noundef nonnull @.str.11) #9
  br label %return

if.end28:                                         ; preds = %if.else23, %if.then13
  %4 = phi i64 [ -1, %if.else23 ], [ %0, %if.then13 ]
  store i8 %frombool, ptr @icount_sleep, align 1
  br i1 %call1, label %if.then32, label %if.end34

if.then32:                                        ; preds = %if.end28
  %call.i.i.i = call noalias dereferenceable_or_null(48) ptr @g_malloc0_n(i64 noundef 1, i64 noundef 48) #13
  call void @timer_init_full(ptr noundef %call.i.i.i, ptr noundef null, i32 noundef range(i32 1, 4) 3, i32 noundef range(i32 1, 1000001) 1, i32 noundef 0, ptr noundef nonnull @icount_timer_cb, ptr noundef null) #9
  store ptr %call.i.i.i, ptr getelementptr inbounds nuw (i8, ptr @timers_state, i64 88), align 8
  %.pre = load i64, ptr %time_shift, align 8
  br label %if.end34

if.end34:                                         ; preds = %if.then32, %if.end28
  %5 = phi i64 [ %.pre, %if.then32 ], [ %4, %if.end28 ]
  %conv = zext i1 %call2 to i32
  store i32 %conv, ptr @icount_align_option, align 4
  %cmp36 = icmp sgt i64 %5, -1
  br i1 %cmp36, label %if.then38, label %if.end40

if.then38:                                        ; preds = %if.end34
  %conv39 = trunc i64 %5 to i16
  store i16 %conv39, ptr getelementptr inbounds nuw (i8, ptr @timers_state, i64 26), align 2
  store i32 1, ptr @use_icount, align 4
  br label %return

if.end40:                                         ; preds = %if.end34
  store i32 2, ptr @use_icount, align 4
  store i16 3, ptr getelementptr inbounds nuw (i8, ptr @timers_state, i64 26), align 2
  store i64 -1, ptr getelementptr inbounds nuw (i8, ptr @timers_state, i64 48), align 8
  %call.i.i.i13 = call noalias dereferenceable_or_null(48) ptr @g_malloc0_n(i64 noundef 1, i64 noundef 48) #13
  call void @timer_init_full(ptr noundef %call.i.i.i13, ptr noundef null, i32 noundef range(i32 1, 4) 3, i32 noundef range(i32 1, 1000001) 1000000, i32 noundef 0, ptr noundef nonnull @icount_adjust_rt, ptr noundef null) #9
  store ptr %call.i.i.i13, ptr getelementptr inbounds nuw (i8, ptr @timers_state, i64 72), align 8
  %call.i = call i64 @qemu_clock_get_ns(i32 noundef 3) #9
  %div.i = sdiv i64 %call.i, 1000000
  %add = add nsw i64 %div.i, 1000
  call void @timer_mod(ptr noundef %call.i.i.i13, i64 noundef %add) #9
  %call.i.i.i14 = call noalias dereferenceable_or_null(48) ptr @g_malloc0_n(i64 noundef 1, i64 noundef 48) #13
  call void @timer_init_full(ptr noundef %call.i.i.i14, ptr noundef null, i32 noundef range(i32 1, 4) 1, i32 noundef range(i32 1, 1000001) 1, i32 noundef 0, ptr noundef nonnull @icount_adjust_vm, ptr noundef null) #9
  store ptr %call.i.i.i14, ptr getelementptr inbounds nuw (i8, ptr @timers_state, i64 80), align 8
  %call44 = call i64 @qemu_clock_get_ns(i32 noundef 1) #9
  %add45 = add i64 %call44, 100000000
  call void @timer_mod(ptr noundef %call.i.i.i14, i64 noundef %add45) #9
  br label %return

return:                                           ; preds = %if.then, %if.then5, %if.end40, %if.then38, %if.then25, %if.then22, %if.then19, %if.then9
  ret void
}